Certificate:
    Data:
        Version: 3 (0x2)
        Serial Number:
            0c:62:3b:db:92:82:57:97:02:9c:26:3d:fe:38:89:30:57:84:46:9a
        Signature Algorithm: sha256WithRSAEncryption
        Issuer: C=US, ST=California, L=San Francisco, O=My company, OU=My Division, CN=My Root CA
        Validity
            Not Before: Jun 28 12:01:34 2024 GMT
            Not After : Jun 28 12:01:34 2025 GMT
        Subject: C=US, ST=California, O=My company, OU=My Division, CN=My Root CA
        Subject Public Key Info:
            Public Key Algorithm: rsaEncryption
                Public-Key: (4096 bit)
                Modulus:
                    00:fb:f4:6e:4f:77:64:1c:96:48:2a:f9:95:1e:5f:
                    a2:94:30:94:f6:53:59:15:38:91:f9:7b:60:9d:4d:
                    4b:f1:c3:63:9a:e4:8f:a0:95:23:6c:bb:40:0b:5f:
                    a5:66:8e:12:59:1b:e8:1f:5f:50:c4:a6:a9:01:d0:
                    4d:50:d3:cd:34:02:cf:20:02:8a:e1:12:f3:20:e9:
                    42:a8:22:09:0f:07:79:64:39:da:0c:ca:14:76:22:
                    54:61:2d:26:f1:88:5e:eb:8f:6f:4e:a4:9d:5f:ba:
                    a5:b6:ba:7f:f5:a9:fe:e9:0f:84:ac:5f:38:b1:59:
                    54:77:71:f7:c5:30:c6:94:5e:bd:fb:88:01:12:46:
                    e8:4c:ec:ac:9f:25:fe:f3:f5:6a:40:0d:28:72:59:
                    e5:57:f0:b7:e1:cf:e1:f5:ed:67:d5:8a:9f:0e:02:
                    f7:6c:59:16:0c:b2:1e:7c:96:04:5d:d6:07:6b:85:
                    5c:8f:13:a2:80:0f:f1:70:6a:8a:06:bf:20:5f:a3:
                    54:d0:43:07:75:0e:5b:96:c5:30:91:86:b8:a9:15:
                    12:e1:8d:4b:f3:12:7c:dd:3b:40:6f:e0:7a:94:29:
                    e8:eb:72:c4:71:b6:f9:9b:9b:43:2e:7a:30:49:ee:
                    87:86:b7:59:47:7c:67:95:d6:0f:c2:23:d2:08:3b:
                    b6:04:3b:c4:04:da:01:32:ae:d9:24:f2:37:21:bd:
                    22:af:8f:5f:4c:a1:db:c9:c6:98:0e:79:35:e0:c6:
                    86:98:3a:73:dc:9b:3e:af:91:76:15:b1:fa:b2:9e:
                    0c:6d:68:07:19:ef:6f:ae:d0:82:69:6c:83:e5:65:
                    32:78:83:aa:22:76:a4:fa:1d:2f:4d:8e:ec:8f:59:
                    fd:b3:cf:61:4f:17:d6:36:79:aa:d9:82:d3:0d:11:
                    62:24:19:69:6b:15:98:59:c4:21:c2:84:70:b7:bb:
                    e9:b3:db:29:0f:3f:fe:3e:7a:f9:62:9d:3f:3c:bf:
                    dd:47:d2:f5:59:f9:8e:5d:01:1b:21:e3:e7:02:95:
                    43:c1:7c:48:0e:dd:f0:66:ca:40:ae:4c:a8:b8:0d:
                    18:77:db:f1:ad:f7:ab:26:cd:a6:58:d6:9b:7e:cb:
                    97:fe:54:b0:40:2b:db:38:f6:fe:7c:4d:dd:bc:b3:
                    05:22:12:32:86:f4:35:8c:65:7c:60:7d:3f:86:c0:
                    01:df:85:9d:5b:f7:1f:2e:83:f6:2e:ea:80:ab:38:
                    81:4e:30:2b:c7:74:f5:63:20:a7:07:3a:80:a0:3b:
                    51:b6:e2:7c:b5:4f:c9:53:76:37:5a:49:ef:d6:a1:
                    ce:da:48:04:3a:65:f7:bc:34:53:89:ce:23:42:45:
                    a1:3c:19
                Exponent: 65537 (0x10001)
        X509v3 extensions:
            X509v3 Subject Key Identifier: 
                41:5F:82:2A:F4:75:07:AF:86:62:27:C4:F1:35:FC:9E:D2:37:75:8A
            X509v3 Basic Constraints: 
                CA:FALSE
            X509v3 Key Usage: critical
                Digital Signature, Key Encipherment
            X509v3 Extended Key Usage: 
                TLS Web Server Authentication
            X509v3 Subject Alternative Name: 
                DNS:example.com, DNS:www.example.com
            X509v3 Authority Key Identifier: 
                DirName:/C=US/ST=California/L=San Francisco/O=My company/OU=My Division/CN=My Root CA
                serial:02:A7:48:C8:A0:07:F6:FA:36:B6:05:F7:11:94:69:09:5D:11:4F:9F
    Signature Algorithm: sha256WithRSAEncryption
    Signature Value:
        0b:7d:81:67:d7:5c:5e:cd:b5:c8:e6:23:96:9b:3b:01:28:a2:
        37:71:b6:9d:11:36:10:dd:3d:77:c6:12:c5:1d:70:3c:03:4b:
        84:54:b0:85:70:9b:87:ff:ba:a9:64:39:4a:d4:d8:11:4e:27:
        81:4e:0f:7d:e8:2e:c6:b7:92:3f:a8:b6:05:26:39:c6:ad:14:
        37:a2:0f:9d:77:b3:fb:53:3e:b0:9d:72:90:11:a2:7a:4b:8f:
        08:11:f8:ff:8f:cb:a1:db:b9:02:9a:87:42:f5:37:58:1f:15:
        48:69:89:3d:0f:8e:b0:a0:65:48:a1:14:f3:86:70:a9:5c:1f:
        15:20:54:38:2e:19:ec:0b:af:ab:65:b4:73:83:ed:93:67:82:
        02:cd:d5:52:68:fa:5c:e2:84:a3:34:31:f1:05:4c:3b:aa:bf:
        58:e9:c1:81:51:0e:cc:79:63:42:d9:68:af:78:28:3d:2e:85:
        4d:82:f0:d9:77:78:bd:52:c4:ae:60:df:a1:e7:5c:64:11:18:
        f2:b6:26:c7:62:78:19:93:e2:93:06:93:25:eb:11:a7:bd:17:
        42:50:37:8c:46:72:e4:23:4c:30:94:0b:8d:a6:a7:27:12:2f:
        02:a3:dc:7b:2d:94:77:e4:31:4c:d3:a9:7b:86:d2:8a:42:1d:
        f7:04:34:58:19:88:4f:76:26:91:7f:e1:97:06:da:4a:7f:19:
        21:15:0d:41:48:31:f0:51:a6:5d:5b:04:8f:79:6b:0b:2f:01:
        ea:71:27:e4:ea:15:58:12:d9:66:36:87:02:b4:4c:0c:35:20:
        70:d0:fc:40:7f:00:cc:eb:01:85:1d:43:10:32:eb:02:fc:f1:
        d6:4b:57:cd:e6:c8:d2:b6:49:60:32:f8:cc:15:b1:36:da:89:
        a8:0a:9e:9d:f1:e4:32:9a:49:ca:64:57:6c:c2:3a:8a:10:a5:
        60:af:cf:35:2e:1c:b3:21:95:99:38:33:60:18:b2:07:ec:16:
        ab:ff:71:09:80:24:6b:d7:af:15:67:c1:c1:a8:0a:19:da:fc:
        b9:a1:a7:34:70:2f:32:d1:94:c8:6d:92:04:21:30:6e:c3:0c:
        42:24:a1:5a:93:22:0c:64:0d:b5:97:16:6e:df:53:cd:b6:18:
        4f:04:09:27:5f:da:d4:69:88:b7:aa:56:91:a4:b6:0b:c9:0a:
        b5:78:ec:be:2e:68:c6:72:45:4b:3e:42:95:13:dd:b8:10:f2:
        c2:6a:8e:b1:26:e5:ab:89:39:46:71:27:45:10:e7:88:01:ef:
        f7:7e:97:3c:59:d7:88:2f:99:05:3d:f6:c9:25:4d:ae:9c:3e:
        6b:a3:97:1f:f9:ab:ab:93
-----BEGIN CERTIFICATE-----
MIIGjDCCBHSgAwIBAgIUDGI725KCV5cCnCY9/jiJMFeERpowDQYJKoZIhvcNAQEL
BQAwejELMAkGA1UEBhMCVVMxEzARBgNVBAgMCkNhbGlmb3JuaWExFjAUBgNVBAcM
DVNhbiBGcmFuY2lzY28xEzARBgNVBAoMCk15IGNvbXBhbnkxFDASBgNVBAsMC015
IERpdmlzaW9uMRMwEQYDVQQDDApNeSBSb290IENBMB4XDTI0MDYyODEyMDEzNFoX
DTI1MDYyODEyMDEzNFowYjELMAkGA1UEBhMCVVMxEzARBgNVBAgMCkNhbGlmb3Ju
aWExEzARBgNVBAoMCk15IGNvbXBhbnkxFDASBgNVBAsMC015IERpdmlzaW9uMRMw
EQYDVQQDDApNeSBSb290IENBMIICIjANBgkqhkiG9w0BAQEFAAOCAg8AMIICCgKC
AgEA+/RuT3dkHJZIKvmVHl+ilDCU9lNZFTiR+XtgnU1L8cNjmuSPoJUjbLtAC1+l
Zo4SWRvoH19QxKapAdBNUNPNNALPIAKK4RLzIOlCqCIJDwd5ZDnaDMoUdiJUYS0m
8Yhe649vTqSdX7qltrp/9an+6Q+ErF84sVlUd3H3xTDGlF69+4gBEkboTOysnyX+
8/VqQA0oclnlV/C34c/h9e1n1YqfDgL3bFkWDLIefJYEXdYHa4VcjxOigA/xcGqK
Br8gX6NU0EMHdQ5blsUwkYa4qRUS4Y1L8xJ83TtAb+B6lCno63LEcbb5m5tDLnow
Se6HhrdZR3xnldYPwiPSCDu2BDvEBNoBMq7ZJPI3Ib0ir49fTKHbycaYDnk14MaG
mDpz3Js+r5F2FbH6sp4MbWgHGe9vrtCCaWyD5WUyeIOqInak+h0vTY7sj1n9s89h
TxfWNnmq2YLTDRFiJBlpaxWYWcQhwoRwt7vps9spDz/+Pnr5Yp0/PL/dR9L1WfmO
XQEbIePnApVDwXxIDt3wZspArkyouA0Yd9vxrferJs2mWNabfsuX/lSwQCvbOPb+
fE3dvLMFIhIyhvQ1jGV8YH0/hsAB34WdW/cfLoP2LuqAqziBTjArx3T1YyCnBzqA
oDtRtuJ8tU/JU3Y3Wknv1qHO2kgEOmX3vDRTic4jQkWhPBkCAwEAAaOCASAwggEc
MB0GA1UdDgQWBBRBX4Iq9HUHr4ZiJ8TxNfye0jd1ijAJBgNVHRMEAjAAMA4GA1Ud
DwEB/wQEAwIFoDATBgNVHSUEDDAKBggrBgEFBQcDATAnBgNVHREEIDAeggtleGFt
cGxlLmNvbYIPd3d3LmV4YW1wbGUuY29tMIGhBgNVHSMEgZkwgZahfqR8MHoxCzAJ
BgNVBAYTAlVTMRMwEQYDVQQIDApDYWxpZm9ybmlhMRYwFAYDVQQHDA1TYW4gRnJh
bmNpc2NvMRMwEQYDVQQKDApNeSBjb21wYW55MRQwEgYDVQQLDAtNeSBEaXZpc2lv
bjETMBEGA1UEAwwKTXkgUm9vdCBDQYIUAqdIyKAH9vo2tgX3EZRpCV0RT58wDQYJ
KoZIhvcNAQELBQADggIBAAt9gWfXXF7NtcjmI5abOwEoojdxtp0RNhDdPXfGEsUd
cDwDS4RUsIVwm4f/uqlkOUrU2BFOJ4FOD33oLsa3kj+otgUmOcatFDeiD513s/tT
PrCdcpARonpLjwgR+P+Py6HbuQKah0L1N1gfFUhpiT0PjrCgZUihFPOGcKlcHxUg
VDguGewLr6tltHOD7ZNnggLN1VJo+lzihKM0MfEFTDuqv1jpwYFRDsx5Y0LZaK94
KD0uhU2C8Nl3eL1SxK5g36HnXGQRGPK2JsdieBmT4pMGkyXrEae9F0JQN4xGcuQj
TDCUC42mpycSLwKj3HstlHfkMUzTqXuG0opCHfcENFgZiE92JpF/4ZcG2kp/GSEV
DUFIMfBRpl1bBI95awsvAepxJ+TqFVgS2WY2hwK0TAw1IHDQ/EB/AMzrAYUdQxAy
6wL88dZLV83myNK2SWAy+MwVsTbaiagKnp3x5DKaScpkV2zCOooQpWCvzzUuHLMh
lZk4M2AYsgfsFqv/cQmAJGvXrxVnwcGoChna/LmhpzRwLzLRlMhtkgQhMG7DDEIk
oVqTIgxkDbWXFm7fU822GE8ECSdf2tRpiLeqVpGktgvJCrV47L4uaMZyRUs+QpUT
3bgQ8sJqjrEm5auJOUZxJ0UQ54gB7/d+lzxZ14gvmQU99sklTa6cPmujlx/5q6uT
-----END CERTIFICATE-----
